; Function Attrs: mustprogress uwtable
define noundef zeroext i1 @_ZNK6google8protobuf11MessageLite32SerializePartialToZeroCopyStreamEPNS0_2io20ZeroCopyOutputStreamE(ptr noundef nonnull align 8 dereferenceable(16) %this, ptr noundef %output) local_unnamed_addr #3 align 2 personality ptr @__gxx_personality_v0 {
entry:
  %v.addr.i = alloca i64, align 8
  %ref.tmp2 = alloca %"class.absl::lts_20230802::log_internal::LogMessage", align 8
  %ref.tmp4 = alloca %"class.std::__cxx11::basic_string", align 8
  %stream = alloca %"class.google::protobuf::io::EpsCopyOutputStream", align 8
  %vtable = load ptr, ptr %this, align 8
  %vfn = getelementptr inbounds i8, ptr %vtable, i64 48
  %0 = load ptr, ptr %vfn, align 8
  %call = tail call noundef i64 %0(ptr noundef nonnull align 8 dereferenceable(16) %this)
  %cmp = icmp ugt i64 %call, 2147483647
  br i1 %cmp, label %if.then, label %if.end

if.then:                                          ; preds = %entry
  call void @_ZN4absl12lts_2023080212log_internal10LogMessageC1EPKciNS2_8ErrorTagE(ptr noundef nonnull align 8 dereferenceable(16) %ref.tmp2, ptr noundef nonnull @.str.2, i32 noundef 463) #21
  invoke void @_ZNK6google8protobuf11MessageLite11GetTypeNameB5cxx11Ev(ptr nonnull sret(%"class.std::__cxx11::basic_string") align 8 %ref.tmp4, ptr noundef nonnull align 8 dereferenceable(16) %this)
          to label %invoke.cont5 unwind label %lpad

invoke.cont5:                                     ; preds = %if.then
  %call8 = invoke noundef nonnull align 8 dereferenceable(16) ptr @_ZN4absl12lts_2023080212log_internal10LogMessagelsERKNSt7__cxx1112basic_stringIcSt11char_traitsIcESaIcEEE(ptr noundef nonnull align 8 dereferenceable(16) %ref.tmp2, ptr noundef nonnull align 8 dereferenceable(32) %ref.tmp4)
          to label %invoke.cont7 unwind label %lpad6

invoke.cont7:                                     ; preds = %invoke.cont5
  invoke void @_ZN4absl12lts_2023080212log_internal10LogMessage19CopyToEncodedBufferILNS2_10StringTypeE0EEEvSt17basic_string_viewIcSt11char_traitsIcEE(ptr noundef nonnull align 8 dereferenceable(16) %call8, i64 40, ptr nonnull @.str.4)
          to label %invoke.cont9 unwind label %lpad6

invoke.cont9:                                     ; preds = %invoke.cont7
  call void @llvm.lifetime.start.p0(i64 8, ptr nonnull %v.addr.i)
  store i64 %call, ptr %v.addr.i, align 8
  %call.i3 = invoke noundef nonnull align 8 dereferenceable(16) ptr @_ZN4absl12lts_2023080212log_internal10LogMessagelsImTnNSt9enable_ifIXntsr16strings_internal16HasAbslStringifyIT_EE5valueEiE4typeELi0EEERS2_RKS5_(ptr noundef nonnull align 8 dereferenceable(16) %call8, ptr noundef nonnull align 8 dereferenceable(8) %v.addr.i)
          to label %invoke.cont11 unwind label %lpad6

invoke.cont11:                                    ; preds = %invoke.cont9
  call void @llvm.lifetime.end.p0(i64 8, ptr nonnull %v.addr.i)
  call void @_ZNSt7__cxx1112basic_stringIcSt11char_traitsIcESaIcEED1Ev(ptr noundef nonnull align 8 dereferenceable(32) %ref.tmp4) #20
  call void @_ZN4absl12lts_2023080212log_internal10LogMessageD1Ev(ptr noundef nonnull align 8 dereferenceable(16) %ref.tmp2) #22
  br label %return

lpad:                                             ; preds = %if.then
  %1 = landingpad { ptr, i32 }
          cleanup
  br label %ehcleanup

lpad6:                                            ; preds = %invoke.cont9, %invoke.cont7, %invoke.cont5
  %2 = landingpad { ptr, i32 }
          cleanup
  call void @_ZNSt7__cxx1112basic_stringIcSt11char_traitsIcESaIcEED1Ev(ptr noundef nonnull align 8 dereferenceable(32) %ref.tmp4) #20
  br label %ehcleanup

ehcleanup:                                        ; preds = %lpad6, %lpad
  %.pn = phi { ptr, i32 } [ %2, %lpad6 ], [ %1, %lpad ]
  call void @_ZN4absl12lts_2023080212log_internal10LogMessageD1Ev(ptr noundef nonnull align 8 dereferenceable(16) %ref.tmp2) #22
  resume { ptr, i32 } %.pn

if.end:                                           ; preds = %entry
  %3 = load atomic i8, ptr @_ZN6google8protobuf2io17CodedOutputStream36default_serialization_deterministic_E monotonic, align 1
  %4 = and i8 %3, 1
  %buffer_.i = getelementptr inbounds i8, ptr %stream, i64 16
  store ptr %buffer_.i, ptr %stream, align 8
  %buffer_end_.i = getelementptr inbounds i8, ptr %stream, i64 8
  store ptr %buffer_.i, ptr %buffer_end_.i, align 8
  %stream_.i = getelementptr inbounds i8, ptr %stream, i64 48
  store ptr %output, ptr %stream_.i, align 8
  %had_error_.i = getelementptr inbounds i8, ptr %stream, i64 56
  store i8 0, ptr %had_error_.i, align 8
  %aliasing_enabled_.i = getelementptr inbounds i8, ptr %stream, i64 57
  store i8 0, ptr %aliasing_enabled_.i, align 1
  %is_serialization_deterministic_.i = getelementptr inbounds i8, ptr %stream, i64 58
  store i8 %4, ptr %is_serialization_deterministic_.i, align 2
  %skip_check_consistency.i = getelementptr inbounds i8, ptr %stream, i64 59
  store i8 0, ptr %skip_check_consistency.i, align 1
  %vtable15 = load ptr, ptr %this, align 8
  %vfn16 = getelementptr inbounds i8, ptr %vtable15, i64 72
  %5 = load ptr, ptr %vfn16, align 8
  %call17 = call noundef ptr %5(ptr noundef nonnull align 8 dereferenceable(16) %this, ptr noundef nonnull %buffer_.i, ptr noundef nonnull %stream)
  %call18 = call noundef ptr @_ZN6google8protobuf2io19EpsCopyOutputStream4TrimEPh(ptr noundef nonnull align 8 dereferenceable(60) %stream, ptr noundef %call17)
  %6 = load i8, ptr %had_error_.i, align 8
  %7 = and i8 %6, 1
  %tobool.i.not = icmp eq i8 %7, 0
  br label %return

return:                                           ; preds = %if.end, %invoke.cont11
  %retval.0 = phi i1 [ false, %invoke.cont11 ], [ %tobool.i.not, %if.end ]
  ret i1 %retval.0
}